target datalayout = "e-m:e-p270:32:32-p271:32:32-p272:64:64-i64:64-i128:128-f80:128-n8:16:32:64-S128"
target triple = "x86_64-pc-linux-gnu"

@.str = private unnamed_addr constant [34 x i8] c"../openssl/crypto/asn1/asn_mime.c\00", align 1
@__func__.b64_read_asn1 = private unnamed_addr constant [14 x i8] c"b64_read_asn1\00", align 1

; Function Attrs: nounwind uwtable
define internal ptr @b64_read_asn1(ptr noundef %0, ptr noundef %1, ptr noundef %2, ptr noundef %3, ptr noundef %4) #0 {
  %6 = alloca ptr, align 8
  %7 = alloca ptr, align 8
  %8 = alloca ptr, align 8
  %9 = alloca ptr, align 8
  %10 = alloca ptr, align 8
  %11 = alloca ptr, align 8
  %12 = alloca ptr, align 8
  %13 = alloca ptr, align 8
  %14 = alloca i32, align 4
  store ptr %0, ptr %7, align 8, !tbaa !3
  store ptr %1, ptr %8, align 8, !tbaa !12
  store ptr %2, ptr %9, align 8, !tbaa !54
  store ptr %3, ptr %10, align 8, !tbaa !24
  store ptr %4, ptr %11, align 8, !tbaa !20
  call void @llvm.lifetime.start.p0(i64 8, ptr %12) #5
  call void @llvm.lifetime.start.p0(i64 8, ptr %13) #5
  %15 = call ptr @BIO_f_base64()
  %16 = call ptr @BIO_new(ptr noundef %15)
  store ptr %16, ptr %12, align 8, !tbaa !3
  %17 = icmp eq ptr %16, null
  br i1 %17, label %18, label %19

18:                                               ; preds = %5
  call void @ERR_new()
  call void @ERR_set_debug(ptr noundef @.str, i32 noundef 145, ptr noundef @__func__.b64_read_asn1)
  call void (i32, i32, ptr, ...) @ERR_set_error(i32 noundef 13, i32 noundef 524320, ptr noundef null)
  store ptr null, ptr %6, align 8
  store i32 1, ptr %14, align 4
  br label %40

19:                                               ; preds = %5
  %20 = load ptr, ptr %12, align 8, !tbaa !3
  %21 = load ptr, ptr %7, align 8, !tbaa !3
  %22 = call ptr @BIO_push(ptr noundef %20, ptr noundef %21)
  store ptr %22, ptr %7, align 8, !tbaa !3
  %23 = load ptr, ptr %8, align 8, !tbaa !12
  %24 = load ptr, ptr %7, align 8, !tbaa !3
  %25 = load ptr, ptr %9, align 8, !tbaa !54
  %26 = load ptr, ptr %10, align 8, !tbaa !24
  %27 = load ptr, ptr %11, align 8, !tbaa !20
  %28 = call ptr @ASN1_item_d2i_bio_ex(ptr noundef %23, ptr noundef %24, ptr noundef %25, ptr noundef %26, ptr noundef %27)
  store ptr %28, ptr %13, align 8, !tbaa !8
  %29 = load ptr, ptr %13, align 8, !tbaa !8
  %30 = icmp ne ptr %29, null
  br i1 %30, label %32, label %31

31:                                               ; preds = %19
  call void @ERR_new()
  call void @ERR_set_debug(ptr noundef @.str, i32 noundef 151, ptr noundef @__func__.b64_read_asn1)
  call void (i32, i32, ptr, ...) @ERR_set_error(i32 noundef 13, i32 noundef 110, ptr noundef null)
  br label %32

32:                                               ; preds = %31, %19
  %33 = load ptr, ptr %7, align 8, !tbaa !3
  %34 = call i64 @BIO_ctrl(ptr noundef %33, i32 noundef 11, i64 noundef 0, ptr noundef null)
  %35 = load ptr, ptr %7, align 8, !tbaa !3
  %36 = call ptr @BIO_pop(ptr noundef %35)
  %37 = load ptr, ptr %12, align 8, !tbaa !3
  %38 = call i32 @BIO_free(ptr noundef %37)
  %39 = load ptr, ptr %13, align 8, !tbaa !8
  store ptr %39, ptr %6, align 8
  store i32 1, ptr %14, align 4
  br label %40

40:                                               ; preds = %32, %18
  call void @llvm.lifetime.end.p0(i64 8, ptr %13) #5
  call void @llvm.lifetime.end.p0(i64 8, ptr %12) #5
  %41 = load ptr, ptr %6, align 8
  ret ptr %41
}