; Function Attrs: nounwind uwtable
define internal fastcc ptr @b64_read_asn1(ptr noundef %0, ptr noundef %1, ptr noundef %2, ptr noundef %3, ptr noundef %4) unnamed_addr #0 {
  %6 = tail call ptr @BIO_f_base64() #6
  %7 = tail call ptr @BIO_new(ptr noundef %6) #6
  %8 = icmp eq ptr %7, null
  br i1 %8, label %9, label %10

9:                                                ; preds = %5
  tail call void @ERR_new() #6
  tail call void @ERR_set_debug(ptr noundef nonnull @.str, i32 noundef 145, ptr noundef nonnull @__func__.b64_read_asn1) #6
  tail call void (i32, i32, ptr, ...) @ERR_set_error(i32 noundef 13, i32 noundef 524320, ptr noundef null) #6
  br label %18

10:                                               ; preds = %5
  %11 = tail call ptr @BIO_push(ptr noundef nonnull %7, ptr noundef %0) #6
  %12 = tail call ptr @ASN1_item_d2i_bio_ex(ptr noundef %1, ptr noundef %11, ptr noundef %2, ptr noundef %3, ptr noundef %4) #6
  %.not = icmp eq ptr %12, null
  br i1 %.not, label %13, label %14

13:                                               ; preds = %10
  tail call void @ERR_new() #6
  tail call void @ERR_set_debug(ptr noundef nonnull @.str, i32 noundef 151, ptr noundef nonnull @__func__.b64_read_asn1) #6
  tail call void (i32, i32, ptr, ...) @ERR_set_error(i32 noundef 13, i32 noundef 110, ptr noundef null) #6
  br label %14

14:                                               ; preds = %13, %10
  %15 = tail call i64 @BIO_ctrl(ptr noundef %11, i32 noundef 11, i64 noundef 0, ptr noundef null) #6
  %16 = tail call ptr @BIO_pop(ptr noundef %11) #6
  %17 = tail call i32 @BIO_free(ptr noundef nonnull %7) #6
  br label %18

18:                                               ; preds = %14, %9
  %.0 = phi ptr [ null, %9 ], [ %12, %14 ]
  ret ptr %.0
}